; Function Attrs: mustprogress nofree norecurse nosync nounwind memory(argmem: readwrite) uwtable
define hidden void @_ZN3ue217make_and_cmp_maskERKNS_9CharReachEPhS3_(ptr noundef nonnull readonly align 8 captures(none) dereferenceable(32) %0, ptr noundef writeonly captures(none) %1, ptr noundef writeonly captures(none) %2) local_unnamed_addr #6 {
  br label %4

4:                                                ; preds = %7, %3
  %.0710.i.i = phi i64 [ 0, %3 ], [ %8, %7 ]
  %5 = getelementptr inbounds nuw [4 x i64], ptr %0, i64 0, i64 %.0710.i.i
  %6 = load i64, ptr %5, align 8
  %.not.i.i = icmp eq i64 %6, 0
  br i1 %.not.i.i, label %7, label %_ZNK3ue29CharReach10find_firstEv.exit

7:                                                ; preds = %4
  %8 = add nuw nsw i64 %.0710.i.i, 1
  %exitcond.i.i = icmp eq i64 %8, 4
  br i1 %exitcond.i.i, label %._crit_edge, label %4, !llvm.loop !5

_ZNK3ue29CharReach10find_firstEv.exit:            ; preds = %4
  %9 = shl nuw nsw i64 %.0710.i.i, 6
  %10 = tail call noundef range(i64 0, 65) i64 @llvm.cttz.i64(i64 %6, i1 true)
  %11 = or disjoint i64 %10, %9
  %.not18 = icmp eq i64 %11, 256
  br i1 %.not18, label %._crit_edge, label %.lr.ph.preheader

.lr.ph.preheader:                                 ; preds = %_ZNK3ue29CharReach10find_firstEv.exit
  %12 = trunc i64 %11 to i8
  %.not.i.i1452 = icmp samesign ult i64 %.0710.i.i, 4
  br i1 %.not.i.i1452, label %.lr.ph54, label %._crit_edge

._crit_edge:                                      ; preds = %7, %_ZNK3ue29CharReach9find_nextEm.exit, %26, %.lr.ph.preheader, %_ZNK3ue29CharReach10find_firstEv.exit
  %.013.lcssa = phi i8 [ -1, %_ZNK3ue29CharReach10find_firstEv.exit ], [ %12, %.lr.ph.preheader ], [ %15, %26 ], [ %37, %_ZNK3ue29CharReach9find_nextEm.exit ], [ -1, %7 ]
  %.012.lcssa = phi i8 [ 0, %_ZNK3ue29CharReach10find_firstEv.exit ], [ %12, %.lr.ph.preheader ], [ %16, %26 ], [ %36, %_ZNK3ue29CharReach9find_nextEm.exit ], [ 0, %7 ]
  %13 = xor i8 %.013.lcssa, %.012.lcssa
  %14 = xor i8 %13, -1
  store i8 %14, ptr %1, align 1
  store i8 %.013.lcssa, ptr %2, align 1
  ret void

.lr.ph54:                                         ; preds = %.lr.ph.preheader, %_ZNK3ue29CharReach9find_nextEm.exit
  %15 = phi i8 [ %37, %_ZNK3ue29CharReach9find_nextEm.exit ], [ %12, %.lr.ph.preheader ]
  %16 = phi i8 [ %36, %_ZNK3ue29CharReach9find_nextEm.exit ], [ %12, %.lr.ph.preheader ]
  %.02153 = phi i64 [ %34, %_ZNK3ue29CharReach9find_nextEm.exit ], [ %11, %.lr.ph.preheader ]
  %17 = lshr i64 %.02153, 6
  %18 = and i64 %.02153, 63
  %.not20.i.i = icmp eq i64 %18, 63
  br i1 %.not20.i.i, label %.preheader, label %19

.preheader:                                       ; preds = %19, %.lr.ph54
  br label %26

19:                                               ; preds = %.lr.ph54
  %20 = getelementptr inbounds nuw [4 x i64], ptr %0, i64 0, i64 %17
  %21 = load i64, ptr %20, align 8
  %22 = shl nsw i64 -2, %18
  %23 = and i64 %21, %22
  %.not21.i.i = icmp eq i64 %23, 0
  br i1 %.not21.i.i, label %.preheader, label %24

24:                                               ; preds = %19
  %25 = and i64 %.02153, 192
  br label %_ZNK3ue29CharReach9find_nextEm.exit

26:                                               ; preds = %.preheader, %28
  %.0.in.i.i = phi i64 [ %.0.i.i, %28 ], [ %17, %.preheader ]
  %27 = icmp samesign ult i64 %.0.in.i.i, 3
  br i1 %27, label %28, label %._crit_edge

28:                                               ; preds = %26
  %.0.i.i = add nuw nsw i64 %.0.in.i.i, 1
  %29 = getelementptr inbounds nuw [4 x i64], ptr %0, i64 0, i64 %.0.i.i
  %30 = load i64, ptr %29, align 8
  %.not22.i.i = icmp eq i64 %30, 0
  br i1 %.not22.i.i, label %26, label %31, !llvm.loop !7

31:                                               ; preds = %28
  %32 = shl nuw nsw i64 %.0.i.i, 6
  br label %_ZNK3ue29CharReach9find_nextEm.exit

_ZNK3ue29CharReach9find_nextEm.exit:              ; preds = %24, %31
  %.sink42 = phi i64 [ %23, %24 ], [ %30, %31 ]
  %.sink41 = phi i64 [ %25, %24 ], [ %32, %31 ]
  %33 = tail call range(i64 0, 65) i64 @llvm.cttz.i64(i64 %.sink42, i1 true)
  %34 = or disjoint i64 %33, %.sink41
  %35 = trunc i64 %34 to i8
  %36 = or i8 %16, %35
  %37 = and i8 %15, %35
  %.not.i.i14 = icmp samesign ult i64 %.sink41, 256
  br i1 %.not.i.i14, label %.lr.ph54, label %._crit_edge, !llvm.loop !30
}